target datalayout = "e-m:e-p270:32:32-p271:32:32-p272:64:64-i64:64-i128:128-f80:128-n8:16:32:64-S128"
target triple = "x86_64-pc-linux-gnu"

%class.ref_vector = type { %class.ref_vector_core }
%class.ref_vector_core = type { %class.ref_manager_wrapper, %class.ptr_vector.29 }
%class.ref_manager_wrapper = type { ptr }
%class.ptr_vector.29 = type { %class.vector.30 }
%class.vector.30 = type { ptr }
%class.obj_map.31 = type { %class.core_hashtable.32 }
%class.core_hashtable.32 = type <{ ptr, i32, i32, i32, [4 x i8] }>
%class.obj_map.36 = type { %class.core_hashtable.37 }
%class.core_hashtable.37 = type <{ ptr, i32, i32, i32, [4 x i8] }>
%class.obj_ref = type { ptr, ptr }
%class.reduce_hypotheses0 = type { ptr, %class.ref_vector, %class.obj_map.31, %class.obj_map.36, %class.ptr_vector.29, %class.svector.20, %class.obj_map.44, %class.ptr_vector.49, %class.ptr_vector.29 }
%class.svector.20 = type { %class.vector.21 }
%class.vector.21 = type { ptr }
%class.obj_map.44 = type { %class.core_hashtable.45 }
%class.core_hashtable.45 = type <{ ptr, i32, i32, i32, [4 x i8] }>
%class.ptr_vector.49 = type { %class.vector.50 }
%class.vector.50 = type { ptr }

; Function Attrs: mustprogress nounwind uwtable
define linkonce_odr hidden noundef nonnull align 8 dereferenceable(976) ptr @_ZNK7obj_refI3app11ast_managerE11get_managerEv(ptr noundef nonnull align 8 dereferenceable(16) %0) #5 comdat align 2 {
  %2 = alloca ptr, align 8
  store ptr %0, ptr %2, align 8, !tbaa !48
  %3 = load ptr, ptr %2, align 8
  %4 = getelementptr inbounds nuw %class.obj_ref, ptr %3, i32 0, i32 1
  %5 = load ptr, ptr %4, align 8, !tbaa !50
  ret ptr %5
}

; Function Attrs: mustprogress uwtable
define hidden void @_ZN11proof_utils17reduce_hypothesesER7obj_refI3app11ast_managerE(ptr noundef nonnull align 8 dereferenceable(16) %0) #4 align 2 personality ptr @__gxx_personality_v0 {
  %2 = alloca ptr, align 8
  %3 = alloca ptr, align 8
  %4 = alloca %class.reduce_hypotheses0, align 8
  %5 = alloca ptr, align 8
  %6 = alloca i32, align 4
  store ptr %0, ptr %2, align 8, !tbaa !48
  call void @llvm.lifetime.start.p0(i64 8, ptr %3) #3
  %7 = load ptr, ptr %2, align 8, !tbaa !48
  %8 = call noundef nonnull align 8 dereferenceable(976) ptr @_ZNK7obj_refI3app11ast_managerE11get_managerEv(ptr noundef nonnull align 8 dereferenceable(16) %7)
  store ptr %8, ptr %3, align 8, !tbaa !10
  call void @llvm.lifetime.start.p0(i64 128, ptr %4) #3
  %9 = load ptr, ptr %3, align 8, !tbaa !10
  call void @_ZN18reduce_hypotheses0C2ER11ast_manager(ptr noundef nonnull align 8 dereferenceable(128) %4, ptr noundef nonnull align 8 dereferenceable(976) %9)
  %10 = load ptr, ptr %2, align 8, !tbaa !48
  invoke void @_ZN18reduce_hypotheses0clER7obj_refI3app11ast_managerE(ptr noundef nonnull align 8 dereferenceable(128) %4, ptr noundef nonnull align 8 dereferenceable(16) %10)
          to label %11 unwind label %12

11:                                               ; preds = %1
  call void @_ZN18reduce_hypotheses0D2Ev(ptr noundef nonnull align 8 dereferenceable(128) %4) #3
  call void @llvm.lifetime.end.p0(i64 128, ptr %4) #3
  call void @llvm.lifetime.end.p0(i64 8, ptr %3) #3
  ret void

12:                                               ; preds = %1
  %13 = landingpad { ptr, i32 }
          cleanup
  %14 = extractvalue { ptr, i32 } %13, 0
  store ptr %14, ptr %5, align 8
  %15 = extractvalue { ptr, i32 } %13, 1
  store i32 %15, ptr %6, align 4
  call void @_ZN18reduce_hypotheses0D2Ev(ptr noundef nonnull align 8 dereferenceable(128) %4) #3
  call void @llvm.lifetime.end.p0(i64 128, ptr %4) #3
  call void @llvm.lifetime.end.p0(i64 8, ptr %3) #3
  br label %16

16:                                               ; preds = %12
  %17 = load ptr, ptr %5, align 8
  %18 = load i32, ptr %6, align 4
  %19 = insertvalue { ptr, i32 } poison, ptr %17, 0
  %20 = insertvalue { ptr, i32 } %19, i32 %18, 1
  resume { ptr, i32 } %20
}