; Function Attrs: mustprogress uwtable
define hidden void @_ZN11proof_utils17reduce_hypothesesER7obj_refI3app11ast_managerE(ptr noundef nonnull align 8 dereferenceable(16) %0) local_unnamed_addr #3 align 2 personality ptr @__gxx_personality_v0 {
  %2 = alloca %class.reduce_hypotheses0, align 8
  %3 = getelementptr inbounds nuw i8, ptr %0, i64 8
  %4 = load ptr, ptr %3, align 8, !tbaa !109
  call void @llvm.lifetime.start.p0(i64 128, ptr nonnull %2) #20
  call void @_ZN18reduce_hypotheses0C2ER11ast_manager(ptr noundef nonnull align 8 dereferenceable(128) %2, ptr noundef nonnull align 8 dereferenceable(976) %4)
  invoke void @_ZN18reduce_hypotheses0clER7obj_refI3app11ast_managerE(ptr noundef nonnull align 8 dereferenceable(128) %2, ptr noundef nonnull align 8 dereferenceable(16) %0)
          to label %5 unwind label %6

5:                                                ; preds = %1
  call void @_ZN18reduce_hypotheses0D2Ev(ptr noundef nonnull align 8 dereferenceable(128) %2) #20
  call void @llvm.lifetime.end.p0(i64 128, ptr nonnull %2) #20
  ret void

6:                                                ; preds = %1
  %7 = landingpad { ptr, i32 }
          cleanup
  call void @_ZN18reduce_hypotheses0D2Ev(ptr noundef nonnull align 8 dereferenceable(128) %2) #20
  call void @llvm.lifetime.end.p0(i64 128, ptr nonnull %2) #20
  resume { ptr, i32 } %7
}